target datalayout = "e-m:e-p270:32:32-p271:32:32-p272:64:64-i64:64-i128:128-f80:128-n8:16:32:64-S128"
target triple = "x86_64-pc-linux-gnu"

@BitCount = global [65536 x i8] zeroinitializer, align 16
@BitGroupNumbers = internal global [65536 x i8] zeroinitializer, align 16

; Function Attrs: nounwind uwtable
define void @PrepareBitSetModule() #0 {
  %1 = alloca i32, align 4
  %2 = alloca i32, align 4
  %3 = alloca i32, align 4
  call void @llvm.lifetime.start.p0(i64 4, ptr %1) #4
  call void @llvm.lifetime.start.p0(i64 4, ptr %2) #4
  call void @llvm.lifetime.start.p0(i64 4, ptr %3) #4
  store i32 65536, ptr %3, align 4, !tbaa !3
  store i32 0, ptr %1, align 4, !tbaa !3
  br label %4

4:                                                ; preds = %19, %0
  %5 = load i32, ptr %1, align 4, !tbaa !3
  %6 = load i32, ptr %3, align 4, !tbaa !3
  %7 = icmp slt i32 %5, %6
  br i1 %7, label %8, label %22

8:                                                ; preds = %4
  %9 = load i32, ptr %1, align 4, !tbaa !3
  %10 = and i32 %9, 65535
  %11 = call i32 @llvm.ctpop.i32(i32 %10)
  %12 = trunc i32 %11 to i8
  %13 = load i32, ptr %1, align 4, !tbaa !3
  %14 = sext i32 %13 to i64
  %15 = getelementptr inbounds [65536 x i8], ptr @BitCount, i64 0, i64 %14
  store i8 %12, ptr %15, align 1, !tbaa !7
  %16 = load i32, ptr %1, align 4, !tbaa !3
  %17 = sext i32 %16 to i64
  %18 = getelementptr inbounds [65536 x i8], ptr @BitGroupNumbers, i64 0, i64 %17
  store i8 -56, ptr %18, align 1, !tbaa !7
  br label %19

19:                                               ; preds = %8
  %20 = load i32, ptr %1, align 4, !tbaa !3
  %21 = add nsw i32 %20, 1
  store i32 %21, ptr %1, align 4, !tbaa !3
  br label %4, !llvm.loop !8

22:                                               ; preds = %4
  store i32 0, ptr %2, align 4, !tbaa !3
  br label %23

23:                                               ; preds = %35, %22
  %24 = load i32, ptr %2, align 4, !tbaa !3
  %25 = icmp slt i32 %24, 163
  br i1 %25, label %26, label %38

26:                                               ; preds = %23
  %27 = load i32, ptr %2, align 4, !tbaa !3
  %28 = trunc i32 %27 to i8
  %29 = load i32, ptr %2, align 4, !tbaa !3
  %30 = sext i32 %29 to i64
  %31 = getelementptr inbounds [163 x i32], ptr @SparseNumbers, i64 0, i64 %30
  %32 = load i32, ptr %31, align 4, !tbaa !3
  %33 = sext i32 %32 to i64
  %34 = getelementptr inbounds [65536 x i8], ptr @BitGroupNumbers, i64 0, i64 %33
  store i8 %28, ptr %34, align 1, !tbaa !7
  br label %35

35:                                               ; preds = %26
  %36 = load i32, ptr %2, align 4, !tbaa !3
  %37 = add nsw i32 %36, 1
  store i32 %37, ptr %2, align 4, !tbaa !3
  br label %23, !llvm.loop !10

38:                                               ; preds = %23
  call void @llvm.lifetime.end.p0(i64 4, ptr %3) #4
  call void @llvm.lifetime.end.p0(i64 4, ptr %2) #4
  call void @llvm.lifetime.end.p0(i64 4, ptr %1) #4
  ret void
}