; Function Attrs: nofree norecurse nosync nounwind memory(write, argmem: none, inaccessiblemem: none) uwtable
define void @PrepareBitSetModule() local_unnamed_addr #0 {
  tail call void @llvm.memset.p0.i64(ptr noundef nonnull align 16 dereferenceable(65536) @BitGroupNumbers, i8 -56, i64 65536, i1 false), !tbaa !3
  br label %1

1:                                                ; preds = %0, %1
  %indvars.iv = phi i64 [ 0, %0 ], [ %indvars.iv.next, %1 ]
  %2 = trunc nuw nsw i64 %indvars.iv to i32
  %3 = tail call range(i32 0, 17) i32 @llvm.ctpop.i32(i32 %2)
  %4 = trunc nuw nsw i32 %3 to i8
  %5 = getelementptr inbounds nuw [65536 x i8], ptr @BitCount, i64 0, i64 %indvars.iv
  store i8 %4, ptr %5, align 1, !tbaa !3
  %indvars.iv.next = add nuw nsw i64 %indvars.iv, 1
  %exitcond.not = icmp eq i64 %indvars.iv.next, 65536
  br i1 %exitcond.not, label %.preheader, label %1, !llvm.loop !6

.preheader:                                       ; preds = %1, %.preheader
  %indvars.iv14 = phi i64 [ %indvars.iv.next15, %.preheader ], [ 0, %1 ]
  %6 = trunc i64 %indvars.iv14 to i8
  %7 = getelementptr inbounds nuw [163 x i32], ptr @SparseNumbers, i64 0, i64 %indvars.iv14
  %8 = load i32, ptr %7, align 4, !tbaa !8
  %9 = sext i32 %8 to i64
  %10 = getelementptr inbounds [65536 x i8], ptr @BitGroupNumbers, i64 0, i64 %9
  store i8 %6, ptr %10, align 1, !tbaa !3
  %indvars.iv.next15 = add nuw nsw i64 %indvars.iv14, 1
  %exitcond17.not = icmp eq i64 %indvars.iv.next15, 163
  br i1 %exitcond17.not, label %11, label %.preheader, !llvm.loop !10

11:                                               ; preds = %.preheader
  ret void
}